target datalayout = "e-m:e-p270:32:32-p271:32:32-p272:64:64-i64:64-i128:128-f80:128-n8:16:32:64-S128"
target triple = "x86_64-pc-linux-gnu"

%struct.WindowAggState = type { %struct.ScanState, ptr, i32, i32, ptr, ptr, ptr, ptr, ptr, i32, i32, i32, i32, i64, i64, i64, i64, ptr, i64, i64, i32, i32, ptr, ptr, i64, i64, %struct.FmgrInfo, %struct.FmgrInfo, i32, i8, i8, i8, i8, ptr, i64, i64, i64, i64, i64, ptr, ptr, ptr, ptr, i8, i8, i8, i8, i8, i8, i8, ptr, ptr, ptr, ptr, ptr, ptr }
%struct.ScanState = type { %struct.PlanState, ptr, ptr, ptr }
%struct.PlanState = type { i32, ptr, ptr, ptr, ptr, ptr, ptr, ptr, ptr, ptr, ptr, ptr, ptr, ptr, ptr, ptr, ptr, ptr, i8, ptr, ptr, ptr, ptr, ptr, i8, i8, i8, i8, i8, i8, i8, i8 }
%struct.FmgrInfo = type { ptr, i32, i16, i8, i8, i8, ptr, ptr, ptr }
%struct.WindowObjectData = type { i32, ptr, ptr, ptr, i32, i32, i64, i64 }

@.str.3 = private unnamed_addr constant [16 x i8] c"nodeWindowAgg.c\00", align 1
@.str.4 = private unnamed_addr constant [50 x i8] c"cannot move WindowObject's mark position backward\00", align 1
@__func__.WinSetMarkPosition = private unnamed_addr constant [19 x i8] c"WinSetMarkPosition\00", align 1

; Function Attrs: nounwind uwtable
define dso_local void @WinSetMarkPosition(ptr noundef %0, i64 noundef %1) #0 {
  %3 = alloca ptr, align 8
  %4 = alloca i64, align 8
  %5 = alloca ptr, align 8
  store ptr %0, ptr %3, align 8
  store i64 %1, ptr %4, align 8
  call void @llvm.lifetime.start.p0(i64 8, ptr %5) #8
  %6 = load ptr, ptr %3, align 8
  %7 = getelementptr inbounds nuw %struct.WindowObjectData, ptr %6, i32 0, i32 1
  %8 = load ptr, ptr %7, align 8
  store ptr %8, ptr %5, align 8
  %9 = load i64, ptr %4, align 8
  %10 = load ptr, ptr %3, align 8
  %11 = getelementptr inbounds nuw %struct.WindowObjectData, ptr %10, i32 0, i32 6
  %12 = load i64, ptr %11, align 8
  %13 = icmp slt i64 %9, %12
  br i1 %13, label %14, label %25

14:                                               ; preds = %2
  br label %15

15:                                               ; preds = %14
  br i1 true, label %16, label %18

16:                                               ; preds = %15
  %17 = call zeroext i1 @errstart_cold(i32 noundef 21, ptr noundef null) #9
  br i1 %17, label %20, label %22

18:                                               ; preds = %15
  %19 = call zeroext i1 @errstart(i32 noundef 21, ptr noundef null)
  br i1 %19, label %20, label %22

20:                                               ; preds = %18, %16
  %21 = call i32 (ptr, ...) @errmsg_internal(ptr noundef @.str.4)
  call void @errfinish(ptr noundef @.str.3, i32 noundef 3292, ptr noundef @__func__.WinSetMarkPosition)
  br label %22

22:                                               ; preds = %20, %18, %16
  unreachable

23:                                               ; No predecessors!
  br label %24

24:                                               ; preds = %23
  br label %25

25:                                               ; preds = %24, %2
  %26 = load ptr, ptr %5, align 8
  %27 = getelementptr inbounds nuw %struct.WindowAggState, ptr %26, i32 0, i32 8
  %28 = load ptr, ptr %27, align 8
  %29 = load ptr, ptr %3, align 8
  %30 = getelementptr inbounds nuw %struct.WindowObjectData, ptr %29, i32 0, i32 4
  %31 = load i32, ptr %30, align 8
  call void @tuplestore_select_read_pointer(ptr noundef %28, i32 noundef %31)
  %32 = load i64, ptr %4, align 8
  %33 = load ptr, ptr %3, align 8
  %34 = getelementptr inbounds nuw %struct.WindowObjectData, ptr %33, i32 0, i32 6
  %35 = load i64, ptr %34, align 8
  %36 = icmp sgt i64 %32, %35
  br i1 %36, label %37, label %50

37:                                               ; preds = %25
  %38 = load ptr, ptr %5, align 8
  %39 = getelementptr inbounds nuw %struct.WindowAggState, ptr %38, i32 0, i32 8
  %40 = load ptr, ptr %39, align 8
  %41 = load i64, ptr %4, align 8
  %42 = load ptr, ptr %3, align 8
  %43 = getelementptr inbounds nuw %struct.WindowObjectData, ptr %42, i32 0, i32 6
  %44 = load i64, ptr %43, align 8
  %45 = sub i64 %41, %44
  %46 = call zeroext i1 @tuplestore_skiptuples(ptr noundef %40, i64 noundef %45, i1 noundef zeroext true)
  %47 = load i64, ptr %4, align 8
  %48 = load ptr, ptr %3, align 8
  %49 = getelementptr inbounds nuw %struct.WindowObjectData, ptr %48, i32 0, i32 6
  store i64 %47, ptr %49, align 8
  br label %50

50:                                               ; preds = %37, %25
  %51 = load ptr, ptr %5, align 8
  %52 = getelementptr inbounds nuw %struct.WindowAggState, ptr %51, i32 0, i32 8
  %53 = load ptr, ptr %52, align 8
  %54 = load ptr, ptr %3, align 8
  %55 = getelementptr inbounds nuw %struct.WindowObjectData, ptr %54, i32 0, i32 5
  %56 = load i32, ptr %55, align 4
  call void @tuplestore_select_read_pointer(ptr noundef %53, i32 noundef %56)
  %57 = load i64, ptr %4, align 8
  %58 = load ptr, ptr %3, align 8
  %59 = getelementptr inbounds nuw %struct.WindowObjectData, ptr %58, i32 0, i32 7
  %60 = load i64, ptr %59, align 8
  %61 = icmp sgt i64 %57, %60
  br i1 %61, label %62, label %75

62:                                               ; preds = %50
  %63 = load ptr, ptr %5, align 8
  %64 = getelementptr inbounds nuw %struct.WindowAggState, ptr %63, i32 0, i32 8
  %65 = load ptr, ptr %64, align 8
  %66 = load i64, ptr %4, align 8
  %67 = load ptr, ptr %3, align 8
  %68 = getelementptr inbounds nuw %struct.WindowObjectData, ptr %67, i32 0, i32 7
  %69 = load i64, ptr %68, align 8
  %70 = sub i64 %66, %69
  %71 = call zeroext i1 @tuplestore_skiptuples(ptr noundef %65, i64 noundef %70, i1 noundef zeroext true)
  %72 = load i64, ptr %4, align 8
  %73 = load ptr, ptr %3, align 8
  %74 = getelementptr inbounds nuw %struct.WindowObjectData, ptr %73, i32 0, i32 7
  store i64 %72, ptr %74, align 8
  br label %75

75:                                               ; preds = %62, %50
  call void @llvm.lifetime.end.p0(i64 8, ptr %5) #8
  ret void
}