; Function Attrs: nounwind uwtable
define dso_local void @WinSetMarkPosition(ptr noundef captures(none) %0, i64 noundef %1) local_unnamed_addr #0 {
  %3 = getelementptr inbounds nuw i8, ptr %0, i64 40
  %4 = load i64, ptr %3, align 8
  %5 = icmp slt i64 %1, %4
  br i1 %5, label %6, label %9

6:                                                ; preds = %2
  %7 = tail call zeroext i1 @errstart_cold(i32 noundef 21, ptr noundef null) #10
  tail call void @llvm.assume(i1 %7)
  %8 = tail call i32 (ptr, ...) @errmsg_internal(ptr noundef nonnull @.str.4) #9
  tail call void @errfinish(ptr noundef nonnull @.str.3, i32 noundef 3292, ptr noundef nonnull @__func__.WinSetMarkPosition) #9
  unreachable

9:                                                ; preds = %2
  %10 = getelementptr inbounds nuw i8, ptr %0, i64 8
  %11 = load ptr, ptr %10, align 8
  %12 = getelementptr inbounds nuw i8, ptr %11, i64 272
  %13 = load ptr, ptr %12, align 8
  %14 = getelementptr inbounds nuw i8, ptr %0, i64 32
  %15 = load i32, ptr %14, align 8
  tail call void @tuplestore_select_read_pointer(ptr noundef %13, i32 noundef %15) #9
  %16 = load i64, ptr %3, align 8
  %17 = icmp sgt i64 %1, %16
  br i1 %17, label %18, label %22

18:                                               ; preds = %9
  %19 = load ptr, ptr %12, align 8
  %20 = sub i64 %1, %16
  %21 = tail call zeroext i1 @tuplestore_skiptuples(ptr noundef %19, i64 noundef %20, i1 noundef zeroext true) #9
  store i64 %1, ptr %3, align 8
  br label %22

22:                                               ; preds = %18, %9
  %23 = load ptr, ptr %12, align 8
  %24 = getelementptr inbounds nuw i8, ptr %0, i64 36
  %25 = load i32, ptr %24, align 4
  tail call void @tuplestore_select_read_pointer(ptr noundef %23, i32 noundef %25) #9
  %26 = getelementptr inbounds nuw i8, ptr %0, i64 48
  %27 = load i64, ptr %26, align 8
  %28 = icmp sgt i64 %1, %27
  br i1 %28, label %29, label %33

29:                                               ; preds = %22
  %30 = load ptr, ptr %12, align 8
  %31 = sub i64 %1, %27
  %32 = tail call zeroext i1 @tuplestore_skiptuples(ptr noundef %30, i64 noundef %31, i1 noundef zeroext true) #9
  store i64 %1, ptr %26, align 8
  br label %33

33:                                               ; preds = %29, %22
  ret void
}